target datalayout = "e-m:e-p270:32:32-p271:32:32-p272:64:64-i64:64-i128:128-f80:128-n8:16:32:64-S128"
target triple = "x86_64-pc-linux-gnu"

%struct.DdManager = type { %struct.DdNode, ptr, ptr, ptr, ptr, ptr, ptr, ptr, i32, i32, double, double, double, i32, i32, i32, i32, i32, i32, ptr, ptr, %struct.DdSubtable, i32, i32, i32, i32, i32, i32, i32, double, i32, i32, i32, ptr, i64, double, i32, ptr, ptr, ptr, ptr, ptr, ptr, ptr, i32, ptr, ptr, ptr, ptr, ptr, ptr, i32, i32, i32, double, i32, i32, i32, i32, double, double, i32, i32, i32, i32, i32, i32, i32, i32, i32, ptr, ptr, i32, i32, i32, i32, i32, i32, ptr, ptr, ptr, ptr, ptr, ptr, ptr, ptr, i32, i64, i64, i64, i32, i64, i64, double, double, double, double, double, double, i32, ptr, ptr, i64 }
%struct.DdNode = type { i32, i32, ptr, %union.anon, i64 }
%union.anon = type { %struct.DdChildren }
%struct.DdChildren = type { ptr, ptr }
%struct.DdSubtable = type { ptr, i32, i32, i32, i32, i32, i32, i32, i32, i32, i32, i32 }
%struct.DdCache = type { ptr, ptr, i64, ptr, i32 }

; Function Attrs: nounwind uwtable
define void @cuddCacheInsert(ptr noundef %0, i64 noundef %1, ptr noundef %2, ptr noundef %3, ptr noundef %4, ptr noundef %5) #0 {
  %7 = alloca ptr, align 8
  %8 = alloca i64, align 8
  %9 = alloca ptr, align 8
  %10 = alloca ptr, align 8
  %11 = alloca ptr, align 8
  %12 = alloca ptr, align 8
  %13 = alloca i32, align 4
  %14 = alloca i32, align 4
  %15 = alloca ptr, align 8
  %16 = alloca i64, align 8
  %17 = alloca i64, align 8
  %18 = alloca i64, align 8
  %19 = alloca i64, align 8
  %20 = alloca i64, align 8
  %21 = alloca i64, align 8
  store ptr %0, ptr %7, align 8, !tbaa !3
  store i64 %1, ptr %8, align 8, !tbaa !30
  store ptr %2, ptr %9, align 8, !tbaa !52
  store ptr %3, ptr %10, align 8, !tbaa !52
  store ptr %4, ptr %11, align 8, !tbaa !52
  store ptr %5, ptr %12, align 8, !tbaa !52
  call void @llvm.lifetime.start.p0(i64 4, ptr %13) #6
  call void @llvm.lifetime.start.p0(i64 4, ptr %14) #6
  call void @llvm.lifetime.start.p0(i64 8, ptr %15) #6
  call void @llvm.lifetime.start.p0(i64 8, ptr %16) #6
  call void @llvm.lifetime.start.p0(i64 8, ptr %17) #6
  call void @llvm.lifetime.start.p0(i64 8, ptr %18) #6
  call void @llvm.lifetime.start.p0(i64 8, ptr %19) #6
  call void @llvm.lifetime.start.p0(i64 8, ptr %20) #6
  call void @llvm.lifetime.start.p0(i64 8, ptr %21) #6
  %22 = load ptr, ptr %9, align 8, !tbaa !52
  %23 = ptrtoint ptr %22 to i64
  %24 = load i64, ptr %8, align 8, !tbaa !30
  %25 = and i64 %24, 14
  %26 = or i64 %23, %25
  store i64 %26, ptr %16, align 8, !tbaa !30
  %27 = load ptr, ptr %10, align 8, !tbaa !52
  %28 = ptrtoint ptr %27 to i64
  %29 = load i64, ptr %8, align 8, !tbaa !30
  %30 = lshr i64 %29, 4
  %31 = or i64 %28, %30
  store i64 %31, ptr %17, align 8, !tbaa !30
  %32 = load ptr, ptr %11, align 8, !tbaa !52
  %33 = ptrtoint ptr %32 to i64
  store i64 %33, ptr %18, align 8, !tbaa !30
  %34 = load ptr, ptr %9, align 8, !tbaa !52
  %35 = ptrtoint ptr %34 to i64
  %36 = and i64 %35, -2
  %37 = inttoptr i64 %36 to ptr
  %38 = getelementptr inbounds nuw %struct.DdNode, ptr %37, i32 0, i32 4
  %39 = load i64, ptr %38, align 8, !tbaa !53
  %40 = shl i64 %39, 1
  %41 = load ptr, ptr %9, align 8, !tbaa !52
  %42 = ptrtoint ptr %41 to i64
  %43 = and i64 %42, 1
  %44 = trunc i64 %43 to i32
  %45 = sext i32 %44 to i64
  %46 = or i64 %40, %45
  %47 = load i64, ptr %8, align 8, !tbaa !30
  %48 = and i64 %47, 14
  %49 = or i64 %46, %48
  store i64 %49, ptr %19, align 8, !tbaa !30
  %50 = load ptr, ptr %10, align 8, !tbaa !52
  %51 = ptrtoint ptr %50 to i64
  %52 = and i64 %51, -2
  %53 = inttoptr i64 %52 to ptr
  %54 = getelementptr inbounds nuw %struct.DdNode, ptr %53, i32 0, i32 4
  %55 = load i64, ptr %54, align 8, !tbaa !53
  %56 = shl i64 %55, 1
  %57 = load ptr, ptr %10, align 8, !tbaa !52
  %58 = ptrtoint ptr %57 to i64
  %59 = and i64 %58, 1
  %60 = trunc i64 %59 to i32
  %61 = sext i32 %60 to i64
  %62 = or i64 %56, %61
  %63 = load i64, ptr %8, align 8, !tbaa !30
  %64 = lshr i64 %63, 4
  %65 = or i64 %62, %64
  store i64 %65, ptr %20, align 8, !tbaa !30
  %66 = load ptr, ptr %11, align 8, !tbaa !52
  %67 = ptrtoint ptr %66 to i64
  %68 = and i64 %67, -2
  %69 = inttoptr i64 %68 to ptr
  %70 = getelementptr inbounds nuw %struct.DdNode, ptr %69, i32 0, i32 4
  %71 = load i64, ptr %70, align 8, !tbaa !53
  %72 = shl i64 %71, 1
  %73 = load ptr, ptr %11, align 8, !tbaa !52
  %74 = ptrtoint ptr %73 to i64
  %75 = and i64 %74, 1
  %76 = trunc i64 %75 to i32
  %77 = sext i32 %76 to i64
  %78 = or i64 %72, %77
  store i64 %78, ptr %21, align 8, !tbaa !30
  %79 = load i64, ptr %19, align 8, !tbaa !30
  %80 = trunc i64 %79 to i32
  %81 = load i64, ptr %21, align 8, !tbaa !30
  %82 = trunc i64 %81 to i32
  %83 = add i32 %80, %82
  %84 = mul i32 %83, 12582917
  %85 = load i64, ptr %20, align 8, !tbaa !30
  %86 = trunc i64 %85 to i32
  %87 = add i32 %84, %86
  %88 = mul i32 %87, 4256249
  store i32 %88, ptr %14, align 4, !tbaa !8
  %89 = load i32, ptr %14, align 4, !tbaa !8
  %90 = load ptr, ptr %7, align 8, !tbaa !3
  %91 = getelementptr inbounds nuw %struct.DdManager, ptr %90, i32 0, i32 9
  %92 = load i32, ptr %91, align 4, !tbaa !34
  %93 = lshr i32 %89, %92
  store i32 %93, ptr %13, align 4, !tbaa !8
  %94 = load ptr, ptr %7, align 8, !tbaa !3
  %95 = getelementptr inbounds nuw %struct.DdManager, ptr %94, i32 0, i32 7
  %96 = load ptr, ptr %95, align 8, !tbaa !31
  %97 = load i32, ptr %13, align 4, !tbaa !8
  %98 = sext i32 %97 to i64
  %99 = getelementptr inbounds %struct.DdCache, ptr %96, i64 %98
  store ptr %99, ptr %15, align 8, !tbaa !54
  %100 = load ptr, ptr %15, align 8, !tbaa !54
  %101 = getelementptr inbounds nuw %struct.DdCache, ptr %100, i32 0, i32 3
  %102 = load ptr, ptr %101, align 8, !tbaa !48
  %103 = icmp ne ptr %102, null
  %104 = zext i1 %103 to i32
  %105 = sitofp i32 %104 to double
  %106 = load ptr, ptr %7, align 8, !tbaa !3
  %107 = getelementptr inbounds nuw %struct.DdManager, ptr %106, i32 0, i32 95
  %108 = load double, ptr %107, align 8, !tbaa !42
  %109 = fadd double %108, %105
  store double %109, ptr %107, align 8, !tbaa !42
  %110 = load ptr, ptr %7, align 8, !tbaa !3
  %111 = getelementptr inbounds nuw %struct.DdManager, ptr %110, i32 0, i32 96
  %112 = load double, ptr %111, align 8, !tbaa !43
  %113 = fadd double %112, 1.000000e+00
  store double %113, ptr %111, align 8, !tbaa !43
  %114 = load i64, ptr %16, align 8, !tbaa !30
  %115 = inttoptr i64 %114 to ptr
  %116 = load ptr, ptr %15, align 8, !tbaa !54
  %117 = getelementptr inbounds nuw %struct.DdCache, ptr %116, i32 0, i32 0
  store ptr %115, ptr %117, align 8, !tbaa !55
  %118 = load i64, ptr %17, align 8, !tbaa !30
  %119 = inttoptr i64 %118 to ptr
  %120 = load ptr, ptr %15, align 8, !tbaa !54
  %121 = getelementptr inbounds nuw %struct.DdCache, ptr %120, i32 0, i32 1
  store ptr %119, ptr %121, align 8, !tbaa !56
  %122 = load i64, ptr %18, align 8, !tbaa !30
  %123 = load ptr, ptr %15, align 8, !tbaa !54
  %124 = getelementptr inbounds nuw %struct.DdCache, ptr %123, i32 0, i32 2
  store i64 %122, ptr %124, align 8, !tbaa !46
  %125 = load ptr, ptr %12, align 8, !tbaa !52
  %126 = load ptr, ptr %15, align 8, !tbaa !54
  %127 = getelementptr inbounds nuw %struct.DdCache, ptr %126, i32 0, i32 3
  store ptr %125, ptr %127, align 8, !tbaa !48
  %128 = load i32, ptr %14, align 4, !tbaa !8
  %129 = load ptr, ptr %15, align 8, !tbaa !54
  %130 = getelementptr inbounds nuw %struct.DdCache, ptr %129, i32 0, i32 4
  store i32 %128, ptr %130, align 8, !tbaa !57
  call void @llvm.lifetime.end.p0(i64 8, ptr %21) #6
  call void @llvm.lifetime.end.p0(i64 8, ptr %20) #6
  call void @llvm.lifetime.end.p0(i64 8, ptr %19) #6
  call void @llvm.lifetime.end.p0(i64 8, ptr %18) #6
  call void @llvm.lifetime.end.p0(i64 8, ptr %17) #6
  call void @llvm.lifetime.end.p0(i64 8, ptr %16) #6
  call void @llvm.lifetime.end.p0(i64 8, ptr %15) #6
  call void @llvm.lifetime.end.p0(i64 4, ptr %14) #6
  call void @llvm.lifetime.end.p0(i64 4, ptr %13) #6
  ret void
}