; Function Attrs: mustprogress nofree norecurse nosync nounwind willreturn memory(readwrite, inaccessiblemem: none) uwtable
define void @cuddCacheInsert(ptr noundef captures(none) %0, i64 noundef %1, ptr noundef %2, ptr noundef %3, ptr noundef %4, ptr noundef %5) local_unnamed_addr #5 {
  %7 = ptrtoint ptr %2 to i64
  %8 = and i64 %1, 14
  %9 = or i64 %8, %7
  %10 = ptrtoint ptr %3 to i64
  %11 = lshr i64 %1, 4
  %12 = or i64 %11, %10
  %13 = ptrtoint ptr %4 to i64
  %14 = and i64 %7, -2
  %15 = inttoptr i64 %14 to ptr
  %16 = getelementptr inbounds nuw i8, ptr %15, i64 32
  %17 = load i64, ptr %16, align 8, !tbaa !40
  %18 = shl i64 %17, 1
  %19 = and i64 %7, 1
  %20 = or disjoint i64 %18, %19
  %21 = or i64 %20, %8
  %22 = and i64 %10, -2
  %23 = inttoptr i64 %22 to ptr
  %24 = getelementptr inbounds nuw i8, ptr %23, i64 32
  %25 = load i64, ptr %24, align 8, !tbaa !40
  %26 = shl i64 %25, 1
  %27 = and i64 %10, 1
  %28 = or disjoint i64 %26, %27
  %29 = or i64 %28, %11
  %30 = and i64 %13, -2
  %31 = inttoptr i64 %30 to ptr
  %32 = getelementptr inbounds nuw i8, ptr %31, i64 32
  %33 = load i64, ptr %32, align 8, !tbaa !40
  %34 = shl i64 %33, 1
  %35 = and i64 %13, 1
  %36 = or disjoint i64 %34, %35
  %37 = trunc i64 %21 to i32
  %38 = trunc i64 %36 to i32
  %39 = add i32 %38, %37
  %40 = mul i32 %39, 12582917
  %41 = trunc i64 %29 to i32
  %42 = add i32 %40, %41
  %43 = mul i32 %42, 4256249
  %44 = getelementptr inbounds nuw i8, ptr %0, i64 100
  %45 = load i32, ptr %44, align 4, !tbaa !31
  %46 = lshr i32 %43, %45
  %47 = getelementptr inbounds nuw i8, ptr %0, i64 88
  %48 = load ptr, ptr %47, align 8, !tbaa !28
  %49 = sext i32 %46 to i64
  %50 = getelementptr inbounds %struct.DdCache, ptr %48, i64 %49
  %51 = getelementptr inbounds nuw i8, ptr %50, i64 24
  %52 = load ptr, ptr %51, align 8, !tbaa !41
  %53 = icmp ne ptr %52, null
  %54 = uitofp i1 %53 to double
  %55 = getelementptr inbounds nuw i8, ptr %0, i64 696
  %56 = load double, ptr %55, align 8, !tbaa !43
  %57 = fadd double %56, %54
  store double %57, ptr %55, align 8, !tbaa !43
  %58 = getelementptr inbounds nuw i8, ptr %0, i64 704
  %59 = load double, ptr %58, align 8, !tbaa !44
  %60 = fadd double %59, 1.000000e+00
  store double %60, ptr %58, align 8, !tbaa !44
  %61 = inttoptr i64 %9 to ptr
  store ptr %61, ptr %50, align 8, !tbaa !45
  %62 = inttoptr i64 %12 to ptr
  %63 = getelementptr inbounds nuw i8, ptr %50, i64 8
  store ptr %62, ptr %63, align 8, !tbaa !46
  %64 = getelementptr inbounds nuw i8, ptr %50, i64 16
  store i64 %13, ptr %64, align 8, !tbaa !47
  store ptr %5, ptr %51, align 8, !tbaa !41
  %65 = getelementptr inbounds nuw i8, ptr %50, i64 32
  store i32 %43, ptr %65, align 8, !tbaa !48
  ret void
}